# SymbolsHelper-Confirmed: 6.0.0 amd64 armel armhf i386 powerpc ppc64 s390x
libKF6WindowSystem.so.6 libkf6windowsystem6 #MINVER#
* Build-Depends-Package: libkf6windowsystem-dev
 _ZN10KKeyServer10xEventToQtEP7_XEventPi@Base 6.0.0
 _ZN10KKeyServer11keyQtToModXEiPj@Base 6.0.0
 _ZN10KKeyServer11keyQtToSymXEiPi@Base 6.0.0
 _ZN10KKeyServer11modXNumLockEv@Base 6.0.0
 _ZN10KKeyServer12keyQtToCodeXEiPi@Base 6.0.0
 _ZN10KKeyServer12keyQtToSymXsEi@Base 6.0.0
 _ZN10KKeyServer13accelModMaskXEv@Base 6.0.0
 _ZN10KKeyServer13keyQtToCodeXsEi@Base 6.0.0
 _ZN10KKeyServer14initializeModsEv@Base 6.0.0
 _ZN10KKeyServer14modXModeSwitchEv@Base 6.0.0
 _ZN10KKeyServer14modXScrollLockEv@Base 6.0.0
 _ZN10KKeyServer15modToStringUserEj@Base 6.0.0
 _ZN10KKeyServer15stringUserToModERK7QString@Base 6.0.0
 _ZN10KKeyServer15symXModXToKeyQtEjtPi@Base 6.0.0
 _ZN10KKeyServer18keyboardHasMetaKeyEv@Base 6.0.0
 _ZN10KKeyServer20xcbKeyPressEventToQtEP19xcb_generic_event_tPi@Base 6.0.0
 _ZN10KKeyServer20xcbKeyPressEventToQtEP21xcb_key_press_event_tPi@Base 6.0.0
 _ZN10KKeyServer24isShiftAsModifierAllowedEi@Base 6.0.0
 _ZN10KKeyServer7modXAltEv@Base 6.0.0
 _ZN10KKeyServer8modXCtrlEv@Base 6.0.0
 _ZN10KKeyServer8modXLockEv@Base 6.0.0
 _ZN10KKeyServer8modXMetaEv@Base 6.0.0
 _ZN10KKeyServer8modXToQtEjPi@Base 6.0.0
 _ZN10KKeyServer9modXShiftEv@Base 6.0.0
 (subst)_ZN10KX11Extras10clearStateE{quintptr}6QFlagsIN3NET5StateEE@Base 6.0.0
 _ZN10KX11Extras11desktopNameEi@Base 6.0.0
 _ZN10KX11Extras11mapViewportEv@Base 6.0.0
 _ZN10KX11Extras11qt_metacallEN11QMetaObject4CallEiPPv@Base 6.0.0
 _ZN10KX11Extras11qt_metacastEPKc@Base 6.0.0
 (subst)_ZN10KX11Extras11windowAddedE{quintptr}@Base 6.0.0
 _ZN10KX11Extras12activeWindowEv@Base 6.0.0
 (subst)_ZN10KX11Extras12setOnDesktopE{quintptr}i@Base 6.0.0
 _ZN10KX11Extras12strutChangedEv@Base 6.0.0
 _ZN10KX11Extras13connectNotifyERK11QMetaMethod@Base 6.0.0
 _ZN10KX11Extras13stackingOrderEv@Base 6.0.0
 (subst)_ZN10KX11Extras13windowChangedE{quintptr}6QFlagsIN3NET8PropertyEES0_INS1_9Property2EE@Base 6.0.0
 (subst)_ZN10KX11Extras13windowRemovedE{quintptr}@Base 6.0.0
 (subst)_ZN10KX11Extras14activateWindowE{quintptr}l@Base 6.0.0
 _ZN10KX11Extras14currentDesktopEv@Base 6.0.0
 (subst)_ZN10KX11Extras14minimizeWindowE{quintptr}@Base 6.0.0
 _ZN10KX11Extras14setDesktopNameEiRK7QString@Base 6.0.0
 _ZN10KX11Extras14showingDesktopEv@Base 6.0.0
 (subst)_ZN10KX11Extras15setOnActivitiesE{quintptr}RK5QListI7QStringE@Base 6.0.0
 _ZN10KX11Extras15workAreaChangedEv@Base 6.0.0
 _ZN10KX11Extras16numberOfDesktopsEv@Base 6.0.0
 (subst)_ZN10KX11Extras16readNamePropertyE{quintptr}m@Base 6.0.0
 (subst)_ZN10KX11Extras16setExtendedStrutE{quintptr}dddddddddddd@Base 6.0.0
 (subst)_ZN10KX11Extras16setOnAllDesktopsE{quintptr}b@Base 6.0.0
 _ZN10KX11Extras16staticMetaObjectE@Base 6.0.0
 (subst)_ZN10KX11Extras16unminimizeWindowE{quintptr}@Base 6.0.0
 _ZN10KX11Extras17compositingActiveEv@Base 6.0.0
 _ZN10KX11Extras17forceActiveWindowEP7QWindowl@Base 6.0.0
 (subst)_ZN10KX11Extras17forceActiveWindowE{quintptr}l@Base 6.0.0
 _ZN10KX11Extras17setCurrentDesktopEi@Base 6.0.0
 _ZN10KX11Extras17setShowingDesktopEb@Base 6.0.0
 _ZN10KX11Extras18compositingChangedEb@Base 6.0.0
 (subst)_ZN10KX11Extras19activeWindowChangedE{quintptr}@Base 6.0.0
 _ZN10KX11Extras19desktopNamesChangedEv@Base 6.0.0
 _ZN10KX11Extras20stackingOrderChangedEv@Base 6.0.0
 _ZN10KX11Extras21currentDesktopChangedEi@Base 6.0.0
 _ZN10KX11Extras23numberOfDesktopsChangedEi@Base 6.0.0
 (subst)_ZN10KX11Extras4iconE{quintptr}iib@Base 6.0.0
 (subst)_ZN10KX11Extras4iconE{quintptr}iibi@Base 6.0.0
 (subst)_ZN10KX11Extras4iconE{quintptr}iibiP10NETWinInfo@Base 6.0.0
 _ZN10KX11Extras4selfEv@Base 6.0.0
 (subst)_ZN10KX11Extras6hasWIdE{quintptr}@Base 6.0.0
 (subst)_ZN10KX11Extras7setTypeE{quintptr}N3NET10WindowTypeE@Base 6.0.0
 _ZN10KX11Extras7windowsEv@Base 6.0.0
 (subst)_ZN10KX11Extras8setStateE{quintptr}6QFlagsIN3NET5StateEE@Base 6.0.0
 (subst)_ZN10KX11Extras8setStrutE{quintptr}dddd@Base 6.0.0
 (subst)_ZN10KX11Extras8workAreaERK5QListI{quintptr}Ei@Base 6.0.0
 _ZN10KX11Extras8workAreaEi@Base 6.0.0
 _ZN10KXMessages10gotMessageERK7QString@Base 6.0.0
 _ZN10KXMessages11qt_metacallEN11QMetaObject4CallEiPPv@Base 6.0.0
 _ZN10KXMessages11qt_metacastEPKc@Base 6.0.0
 _ZN10KXMessages16broadcastMessageEPKcRK7QStringi@Base 6.0.0
 _ZN10KXMessages16staticMetaObjectE@Base 6.0.0
 _ZN10KXMessages17broadcastMessageXEP16xcb_connection_tPKcRK7QStringi@Base 6.0.0
 _ZN10KXMessagesC1EP16xcb_connection_tjPKcP7QObject@Base 6.0.0
 _ZN10KXMessagesC1EPKcP7QObject@Base 6.0.0
 _ZN10KXMessagesC2EP16xcb_connection_tjPKcP7QObject@Base 6.0.0
 _ZN10KXMessagesC2EPKcP7QObject@Base 6.0.0
 _ZN10KXMessagesD0Ev@Base 6.0.0
 _ZN10KXMessagesD1Ev@Base 6.0.0
 _ZN10KXMessagesD2Ev@Base 6.0.0
 _ZN10NETWinInfo10setDesktopEib@Base 6.0.0
 _ZN10NETWinInfo10setOpacityEm@Base 6.0.0
 _ZN10NETWinInfo11kdeGeometryER7NETRectS1_@Base 6.0.0
 _ZN10NETWinInfo11setIconNameEPKc@Base 6.0.0
 _ZN10NETWinInfo11setOpacityFEd@Base 6.0.0
 _ZN10NETWinInfo11setUserTimeEj@Base 6.0.0
 _ZN10NETWinInfo12setStartupIdEPKc@Base 6.0.0
 _ZN10NETWinInfo12virtual_hookEiPv@Base 6.0.0
 _ZN10NETWinInfo13OnAllDesktopsE@Base 6.0.0
 _ZN10NETWinInfo13setActivitiesEPKc@Base 6.0.0
 _ZN10NETWinInfo13setWindowTypeEN3NET10WindowTypeE@Base 6.0.0
 _ZN10NETWinInfo13updateWMStateEv@Base 6.0.0
 _ZN10NETWinInfo14setVisibleNameEPKc@Base 6.0.0
 _ZN10NETWinInfo15setFrameExtentsE8NETStrut@Base 6.0.0
 _ZN10NETWinInfo15setFrameOverlapE8NETStrut@Base 6.0.0
 _ZN10NETWinInfo15setHandledIconsEb@Base 6.0.0
 _ZN10NETWinInfo15setIconGeometryE7NETRect@Base 6.0.0
 _ZN10NETWinInfo15setIconInternalER9NETRArrayI7NETIconERijS1_b@Base 6.0.0
 _ZN10NETWinInfo16setExtendedStrutERK16NETExtendedStrut@Base 6.0.0
 _ZN10NETWinInfo17setAllowedActionsE6QFlagsIN3NET6ActionEE@Base 6.0.0
 _ZN10NETWinInfo18setDesktopFileNameEPKc@Base 6.0.0
 _ZN10NETWinInfo18setGtkFrameExtentsE8NETStrut@Base 6.0.0
 _ZN10NETWinInfo18setVisibleIconNameEPKc@Base 6.0.0
 _ZN10NETWinInfo20setAppMenuObjectPathEPKc@Base 6.0.0
 _ZN10NETWinInfo21setAppMenuServiceNameEPKc@Base 6.0.0
 _ZN10NETWinInfo21setFullscreenMonitorsE21NETFullscreenMonitors@Base 6.0.0
 _ZN10NETWinInfo22setBlockingCompositingEb@Base 6.0.0
 _ZN10NETWinInfo5eventEP19xcb_generic_event_t@Base 6.0.0
 _ZN10NETWinInfo5eventEP19xcb_generic_event_tP6QFlagsIN3NET8PropertyEEPS2_INS3_9Property2EE@Base 6.0.0
 _ZN10NETWinInfo6setPidEi@Base 6.0.0
 _ZN10NETWinInfo6updateE6QFlagsIN3NET8PropertyEES0_INS1_9Property2EE@Base 6.0.0
 _ZN10NETWinInfo7setIconE7NETIconb@Base 6.0.0
 _ZN10NETWinInfo7setNameEPKc@Base 6.0.0
 _ZN10NETWinInfo8setStateE6QFlagsIN3NET5StateEES3_@Base 6.0.0
 _ZN10NETWinInfo8setStrutE8NETStrut@Base 6.0.0
 _ZN10NETWinInfoC1EP16xcb_connection_tjj6QFlagsIN3NET8PropertyEES2_INS3_9Property2EENS3_4RoleE@Base 6.0.0
 _ZN10NETWinInfoC1ERKS_@Base 6.0.0
 _ZN10NETWinInfoC2EP16xcb_connection_tjj6QFlagsIN3NET8PropertyEES2_INS3_9Property2EENS3_4RoleE@Base 6.0.0
 _ZN10NETWinInfoC2ERKS_@Base 6.0.0
 _ZN10NETWinInfoD0Ev@Base 6.0.0
 _ZN10NETWinInfoD1Ev@Base 6.0.0
 _ZN10NETWinInfoD2Ev@Base 6.0.0
 _ZN10NETWinInfoaSERKS_@Base 6.0.0
 _ZN11KWindowInfoC1ERKS_@Base 6.0.0
 (subst)_ZN11KWindowInfoC1E{quintptr}6QFlagsIN3NET8PropertyEES0_INS1_9Property2EE@Base 6.0.0
 _ZN11KWindowInfoC2ERKS_@Base 6.0.0
 (subst)_ZN11KWindowInfoC2E{quintptr}6QFlagsIN3NET8PropertyEES0_INS1_9Property2EE@Base 6.0.0
 _ZN11KWindowInfoD1Ev@Base 6.0.0
 _ZN11KWindowInfoD2Ev@Base 6.0.0
 _ZN11KWindowInfoaSERKS_@Base 6.0.0
 _ZN11NETRootInfo11setWorkAreaEiRK7NETRect@Base 6.0.0
 _ZN11NETRootInfo12setSupportedEN3NET14WindowTypeMaskEb@Base 6.0.0
 _ZN11NETRootInfo12setSupportedEN3NET5StateEb@Base 6.0.0
 _ZN11NETRootInfo12setSupportedEN3NET6ActionEb@Base 6.0.0
 _ZN11NETRootInfo12setSupportedEN3NET8PropertyEb@Base 6.0.0
 _ZN11NETRootInfo12setSupportedEN3NET9Property2Eb@Base 6.0.0
 _ZN11NETRootInfo12setSupportedEv@Base 6.0.0
 _ZN11NETRootInfo12virtual_hookEiPv@Base 6.0.0
 _ZN11NETRootInfo13setClientListEPKjj@Base 6.0.0
 _ZN11NETRootInfo14restackRequestEjN3NET13RequestSourceEjij@Base 6.0.0
 _ZN11NETRootInfo14setDesktopNameEiPKc@Base 6.0.0
 _ZN11NETRootInfo15setActiveWindowEj@Base 6.0.0
 _ZN11NETRootInfo15setActiveWindowEjN3NET13RequestSourceEjj@Base 6.0.0
 _ZN11NETRootInfo15setVirtualRootsEPKjj@Base 6.0.0
 _ZN11NETRootInfo16setDesktopLayoutEN3NET11OrientationEiiNS0_19DesktopLayoutCornerE@Base 6.0.0
 _ZN11NETRootInfo17moveResizeRequestEjiiN3NET9DirectionEhNS0_13RequestSourceE@Base 6.0.0
 _ZN11NETRootInfo17setCurrentDesktopEib@Base 6.0.0
 _ZN11NETRootInfo17setShowingDesktopEb@Base 6.0.0
 _ZN11NETRootInfo18closeWindowRequestEj@Base 6.0.0
 _ZN11NETRootInfo18setDesktopGeometryERK7NETSize@Base 6.0.0
 _ZN11NETRootInfo18setDesktopViewportEiRK8NETPoint@Base 6.0.0
 _ZN11NETRootInfo19setNumberOfDesktopsEi@Base 6.0.0
 _ZN11NETRootInfo20setDefaultPropertiesEv@Base 6.0.0
 _ZN11NETRootInfo21setClientListStackingEPKjj@Base 6.0.0
 _ZN11NETRootInfo21showWindowMenuRequestEjiii@Base 6.0.0
 _ZN11NETRootInfo23moveResizeWindowRequestEjiiiii@Base 6.0.0
 _ZN11NETRootInfo25updateSupportedPropertiesEj@Base 6.0.0
 _ZN11NETRootInfo5eventEP19xcb_generic_event_t@Base 6.0.0
 _ZN11NETRootInfo5eventEP19xcb_generic_event_tP6QFlagsIN3NET8PropertyEEPS2_INS3_9Property2EE@Base 6.0.0
 _ZN11NETRootInfo6updateE6QFlagsIN3NET8PropertyEES0_INS1_9Property2EE@Base 6.0.0
 _ZN11NETRootInfo8activateEv@Base 6.0.0
 _ZN11NETRootInfo8sendPingEjj@Base 6.0.0
 _ZN11NETRootInfoC1EP16xcb_connection_t6QFlagsIN3NET8PropertyEES2_INS3_9Property2EEib@Base 6.0.0
 _ZN11NETRootInfoC1EP16xcb_connection_tjPKc6QFlagsIN3NET8PropertyEES4_INS5_14WindowTypeMaskEES4_INS5_5StateEES4_INS5_9Property2EES4_INS5_6ActionEEib@Base 6.0.0
 _ZN11NETRootInfoC1ERKS_@Base 6.0.0
 _ZN11NETRootInfoC2EP16xcb_connection_t6QFlagsIN3NET8PropertyEES2_INS3_9Property2EEib@Base 6.0.0
 _ZN11NETRootInfoC2EP16xcb_connection_tjPKc6QFlagsIN3NET8PropertyEES4_INS5_14WindowTypeMaskEES4_INS5_5StateEES4_INS5_9Property2EES4_INS5_6ActionEEib@Base 6.0.0
 _ZN11NETRootInfoC2ERKS_@Base 6.0.0
 _ZN11NETRootInfoD0Ev@Base 6.0.0
 _ZN11NETRootInfoD1Ev@Base 6.0.0
 _ZN11NETRootInfoD2Ev@Base 6.0.0
 _ZN11NETRootInfoaSERKS_@Base 6.0.0
 _ZN12KStartupInfo10appStartedERK10QByteArray@Base 6.0.0
 _ZN12KStartupInfo10appStartedEv@Base 6.0.0
 _ZN12KStartupInfo10sendChangeERK14KStartupInfoIdRK16KStartupInfoData@Base 6.0.0
 _ZN12KStartupInfo10sendFinishERK14KStartupInfoId@Base 6.0.0
 _ZN12KStartupInfo10sendFinishERK14KStartupInfoIdRK16KStartupInfoData@Base 6.0.0
 _ZN12KStartupInfo10setTimeoutEj@Base 6.0.0
 _ZN12KStartupInfo11customEventEP6QEvent@Base 6.0.0
 _ZN12KStartupInfo11qt_metacallEN11QMetaObject4CallEiPPv@Base 6.0.0
 _ZN12KStartupInfo11qt_metacastEPKc@Base 6.0.0
 _ZN12KStartupInfo11sendStartupERK14KStartupInfoIdRK16KStartupInfoData@Base 6.0.0
 (subst)_ZN12KStartupInfo12checkStartupE{quintptr}@Base 6.0.0
 (subst)_ZN12KStartupInfo12checkStartupE{quintptr}R14KStartupInfoId@Base 6.0.0
 (subst)_ZN12KStartupInfo12checkStartupE{quintptr}R14KStartupInfoIdR16KStartupInfoData@Base 6.0.0
 (subst)_ZN12KStartupInfo12checkStartupE{quintptr}R16KStartupInfoData@Base 6.0.0
 _ZN12KStartupInfo12setStartupIdERK10QByteArray@Base 6.0.0
 _ZN12KStartupInfo13gotNewStartupERK14KStartupInfoIdRK16KStartupInfoData@Base 6.0.0
 _ZN12KStartupInfo13sendChangeXcbEP16xcb_connection_tiRK14KStartupInfoIdRK16KStartupInfoData@Base 6.0.0
 _ZN12KStartupInfo13sendFinishXcbEP16xcb_connection_tiRK14KStartupInfoId@Base 6.0.0
 _ZN12KStartupInfo13sendFinishXcbEP16xcb_connection_tiRK14KStartupInfoIdRK16KStartupInfoData@Base 6.0.0
 _ZN12KStartupInfo14sendStartupXcbEP16xcb_connection_tiRK14KStartupInfoIdRK16KStartupInfoData@Base 6.0.0
 _ZN12KStartupInfo15resetStartupEnvEv@Base 6.0.0
 _ZN12KStartupInfo15setNewStartupIdEP7QWindowRK10QByteArray@Base 6.0.0
 (subst)_ZN12KStartupInfo15windowStartupIdE{quintptr}@Base 6.0.0
 _ZN12KStartupInfo16gotRemoveStartupERK14KStartupInfoIdRK16KStartupInfoData@Base 6.0.0
 _ZN12KStartupInfo16gotStartupChangeERK14KStartupInfoIdRK16KStartupInfoData@Base 6.0.0
 _ZN12KStartupInfo16staticMetaObjectE@Base 6.0.0
 _ZN12KStartupInfo18createNewStartupIdEv@Base 6.0.0
 _ZN12KStartupInfo30createNewStartupIdForTimestampEj@Base 6.0.0
 _ZN12KStartupInfoC1EiP7QObject@Base 6.0.0
 _ZN12KStartupInfoC2EiP7QObject@Base 6.0.0
 _ZN12KStartupInfoD0Ev@Base 6.0.0
 _ZN12KStartupInfoD1Ev@Base 6.0.0
 _ZN12KStartupInfoD2Ev@Base 6.0.0
 _ZN13KWindowShadow10setPaddingERK8QMargins@Base 6.0.0
 _ZN13KWindowShadow10setTopTileE14QSharedPointerI17KWindowShadowTileE@Base 6.0.0
 _ZN13KWindowShadow11qt_metacallEN11QMetaObject4CallEiPPv@Base 6.0.0
 _ZN13KWindowShadow11qt_metacastEPKc@Base 6.0.0
 _ZN13KWindowShadow11setLeftTileE14QSharedPointerI17KWindowShadowTileE@Base 6.0.0
 _ZN13KWindowShadow12setRightTileE14QSharedPointerI17KWindowShadowTileE@Base 6.0.0
 _ZN13KWindowShadow13setBottomTileE14QSharedPointerI17KWindowShadowTileE@Base 6.0.0
 _ZN13KWindowShadow14setTopLeftTileE14QSharedPointerI17KWindowShadowTileE@Base 6.0.0
 _ZN13KWindowShadow15setTopRightTileE14QSharedPointerI17KWindowShadowTileE@Base 6.0.0
 _ZN13KWindowShadow16staticMetaObjectE@Base 6.0.0
 _ZN13KWindowShadow17setBottomLeftTileE14QSharedPointerI17KWindowShadowTileE@Base 6.0.0
 _ZN13KWindowShadow18setBottomRightTileE14QSharedPointerI17KWindowShadowTileE@Base 6.0.0
 _ZN13KWindowShadow6createEv@Base 6.0.0
 _ZN13KWindowShadow7destroyEv@Base 6.0.0
 _ZN13KWindowShadow9setWindowEP7QWindow@Base 6.0.0
 _ZN13KWindowShadowC1EP7QObject@Base 6.0.0
 _ZN13KWindowShadowC2EP7QObject@Base 6.0.0
 _ZN13KWindowShadowD0Ev@Base 6.0.0
 _ZN13KWindowShadowD1Ev@Base 6.0.0
 _ZN13KWindowShadowD2Ev@Base 6.0.0
 _ZN13KWindowSystem11qt_metacallEN11QMetaObject4CallEiPPv@Base 6.0.0
 _ZN13KWindowSystem11qt_metacastEPKc@Base 6.0.0
 _ZN13KWindowSystem13isPlatformX11Ev@Base 6.0.0
 _ZN13KWindowSystem13setMainWindowEP7QWindowRK7QString@Base 6.0.0
 (subst)_ZN13KWindowSystem13setMainWindowEP7QWindow{quintptr}@Base 6.0.0
 _ZN13KWindowSystem14activateWindowEP7QWindowl@Base 6.0.0
 _ZN13KWindowSystem14showingDesktopEv@Base 6.0.0
 _ZN13KWindowSystem15updateStartupIdEP7QWindow@Base 6.0.0
 _ZN13KWindowSystem16staticMetaObjectE@Base 6.0.0
 _ZN13KWindowSystem17isPlatformWaylandEv@Base 6.0.0
 _ZN13KWindowSystem17setShowingDesktopEb@Base 6.0.0
 _ZN13KWindowSystem21showingDesktopChangedEb@Base 6.0.0
 _ZN13KWindowSystem28setCurrentXdgActivationTokenERK7QString@Base 6.0.0
 _ZN13KWindowSystem4selfEv@Base 6.0.0
 _ZN13KWindowSystem6d_funcEv@Base 6.0.0
 _ZN13KWindowSystem8platformEv@Base 6.0.0
 _ZN14KStartupInfoId6initIdERK10QByteArray@Base 6.0.0
 _ZN14KStartupInfoIdC1ERK7QString@Base 6.0.0
 _ZN14KStartupInfoIdC1ERKS_@Base 6.0.0
 _ZN14KStartupInfoIdC1Ev@Base 6.0.0
 _ZN14KStartupInfoIdC2ERK7QString@Base 6.0.0
 _ZN14KStartupInfoIdC2ERKS_@Base 6.0.0
 _ZN14KStartupInfoIdC2Ev@Base 6.0.0
 _ZN14KStartupInfoIdD1Ev@Base 6.0.0
 _ZN14KStartupInfoIdD2Ev@Base 6.0.0
 _ZN14KStartupInfoIdaSERKS_@Base 6.0.0
 _ZN14KUserTimestamp13userTimestampEv@Base 6.0.0
 _ZN14KUserTimestamp19updateUserTimestampEm@Base 6.0.0
 (arch=linux-any)_ZN14KWaylandExtras11qt_metacallEN11QMetaObject4CallEiPPv@Base 6.0.0
 (arch=linux-any)_ZN14KWaylandExtras11qt_metacastEPKc@Base 6.0.0
 (arch=linux-any)_ZN14KWaylandExtras12exportWindowEP7QWindow@Base 6.0.0
 (arch=linux-any)_ZN14KWaylandExtras14unexportWindowEP7QWindow@Base 6.0.0
 (arch=linux-any)_ZN14KWaylandExtras14windowExportedEP7QWindowRK7QString@Base 6.0.0
 (arch=linux-any)_ZN14KWaylandExtras15lastInputSerialEP7QWindow@Base 6.0.0
 (arch=linux-any)_ZN14KWaylandExtras16staticMetaObjectE@Base 6.0.0
 (arch=linux-any)_ZN14KWaylandExtras25requestXdgActivationTokenEP7QWindowjRK7QString@Base 6.0.0
 (arch=linux-any)_ZN14KWaylandExtras25xdgActivationTokenArrivedEiRK7QString@Base 6.0.0
 (arch=linux-any)_ZN14KWaylandExtras4selfEv@Base 6.0.0
 (arch=linux-any)_ZN14KWaylandExtrasC1Ev@Base 6.0.0
 (arch=linux-any)_ZN14KWaylandExtrasC2Ev@Base 6.0.0
 (arch=linux-any)_ZN14KWaylandExtrasD0Ev@Base 6.0.0
 (arch=linux-any)_ZN14KWaylandExtrasD1Ev@Base 6.0.0
 (arch=linux-any)_ZN14KWaylandExtrasD2Ev@Base 6.0.0
 _ZN14KWindowEffects11slideWindowEP7QWindowNS_17SlideFromLocationEi@Base 6.0.0
 _ZN14KWindowEffects16enableBlurBehindEP7QWindowbRK7QRegion@Base 6.0.0
 _ZN14KWindowEffects17isEffectAvailableENS_6EffectE@Base 6.0.0
 _ZN14KWindowEffects24enableBackgroundContrastEP7QWindowbdddRK7QRegion@Base 6.0.0
 _ZN15KSelectionOwner10timerEventEP11QTimerEvent@Base 6.0.0
 _ZN15KSelectionOwner11filterEventEPv@Base 6.0.0
 _ZN15KSelectionOwner11qt_metacallEN11QMetaObject4CallEiPPv@Base 6.0.0
 _ZN15KSelectionOwner11qt_metacastEPKc@Base 6.0.0
 _ZN15KSelectionOwner12genericReplyEjjj@Base 6.0.0
 _ZN15KSelectionOwner12replyTargetsEjj@Base 6.0.0
 _ZN15KSelectionOwner13lostOwnershipEv@Base 6.0.0
 _ZN15KSelectionOwner16claimedOwnershipEv@Base 6.0.0
 _ZN15KSelectionOwner16handle_selectionEjjj@Base 6.0.0
 _ZN15KSelectionOwner16staticMetaObjectE@Base 6.0.0
 _ZN15KSelectionOwner22failedToClaimOwnershipEv@Base 6.0.0
 _ZN15KSelectionOwner24filter_selection_requestEPv@Base 6.0.0
 _ZN15KSelectionOwner5claimEbb@Base 6.0.0
 _ZN15KSelectionOwner7releaseEv@Base 6.0.0
 _ZN15KSelectionOwner7setDataEjj@Base 6.0.0
 _ZN15KSelectionOwner8getAtomsEv@Base 6.0.0
 _ZN15KSelectionOwnerC1EPKcP16xcb_connection_tjP7QObject@Base 6.0.0
 _ZN15KSelectionOwnerC1EPKciP7QObject@Base 6.0.0
 _ZN15KSelectionOwnerC1EjP16xcb_connection_tjP7QObject@Base 6.0.0
 _ZN15KSelectionOwnerC1EjiP7QObject@Base 6.0.0
 _ZN15KSelectionOwnerC2EPKcP16xcb_connection_tjP7QObject@Base 6.0.0
 _ZN15KSelectionOwnerC2EPKciP7QObject@Base 6.0.0
 _ZN15KSelectionOwnerC2EjP16xcb_connection_tjP7QObject@Base 6.0.0
 _ZN15KSelectionOwnerC2EjiP7QObject@Base 6.0.0
 _ZN15KSelectionOwnerD0Ev@Base 6.0.0
 _ZN15KSelectionOwnerD1Ev@Base 6.0.0
 _ZN15KSelectionOwnerD2Ev@Base 6.0.0
 _ZN16KStartupInfoData10setDesktopEi@Base 6.0.0
 _ZN16KStartupInfoData10setWMClassERK10QByteArray@Base 6.0.0
 _ZN16KStartupInfoData11setHostnameERK10QByteArray@Base 6.0.0
 _ZN16KStartupInfoData11setXineramaEi@Base 6.0.0
 _ZN16KStartupInfoData14setDescriptionERK7QString@Base 6.0.0
 _ZN16KStartupInfoData16setApplicationIdERK7QString@Base 6.0.0
 _ZN16KStartupInfoData6addPidEi@Base 6.0.0
 _ZN16KStartupInfoData6setBinERK7QString@Base 6.0.0
 _ZN16KStartupInfoData6updateERKS_@Base 6.0.0
 _ZN16KStartupInfoData7setIconERK7QString@Base 6.0.0
 _ZN16KStartupInfoData7setNameERK7QString@Base 6.0.0
 _ZN16KStartupInfoData9setScreenEi@Base 6.0.0
 _ZN16KStartupInfoData9setSilentENS_8TriStateE@Base 6.0.0
 _ZN16KStartupInfoDataC1ERK7QString@Base 6.0.0
 _ZN16KStartupInfoDataC1ERKS_@Base 6.0.0
 _ZN16KStartupInfoDataC1Ev@Base 6.0.0
 _ZN16KStartupInfoDataC2ERK7QString@Base 6.0.0
 _ZN16KStartupInfoDataC2ERKS_@Base 6.0.0
 _ZN16KStartupInfoDataC2Ev@Base 6.0.0
 _ZN16KStartupInfoDataD1Ev@Base 6.0.0
 _ZN16KStartupInfoDataD2Ev@Base 6.0.0
 _ZN16KStartupInfoDataaSERKS_@Base 6.0.0
 _ZN17KSelectionWatcher11filterEventEPv@Base 6.0.0
 _ZN17KSelectionWatcher11qt_metacallEN11QMetaObject4CallEiPPv@Base 6.0.0
 _ZN17KSelectionWatcher11qt_metacastEPKc@Base 6.0.0
 _ZN17KSelectionWatcher16staticMetaObjectE@Base 6.0.0
 _ZN17KSelectionWatcher4initEv@Base 6.0.0
 _ZN17KSelectionWatcher5ownerEv@Base 6.0.0
 _ZN17KSelectionWatcher8newOwnerEj@Base 6.0.0
 _ZN17KSelectionWatcher9lostOwnerEv@Base 6.0.0
 _ZN17KSelectionWatcherC1EPKcP16xcb_connection_tjP7QObject@Base 6.0.0
 _ZN17KSelectionWatcherC1EPKciP7QObject@Base 6.0.0
 _ZN17KSelectionWatcherC1EjP16xcb_connection_tjP7QObject@Base 6.0.0
 _ZN17KSelectionWatcherC1EjiP7QObject@Base 6.0.0
 _ZN17KSelectionWatcherC2EPKcP16xcb_connection_tjP7QObject@Base 6.0.0
 _ZN17KSelectionWatcherC2EPKciP7QObject@Base 6.0.0
 _ZN17KSelectionWatcherC2EjP16xcb_connection_tjP7QObject@Base 6.0.0
 _ZN17KSelectionWatcherC2EjiP7QObject@Base 6.0.0
 _ZN17KSelectionWatcherD0Ev@Base 6.0.0
 _ZN17KSelectionWatcherD1Ev@Base 6.0.0
 _ZN17KSelectionWatcherD2Ev@Base 6.0.0
 _ZN17KWindowShadowTile6createEv@Base 6.0.0
 _ZN17KWindowShadowTile8setImageERK6QImage@Base 6.0.0
 _ZN17KWindowShadowTileC1Ev@Base 6.0.0
 _ZN17KWindowShadowTileC2Ev@Base 6.0.0
 _ZN17KWindowShadowTileD1Ev@Base 6.0.0
 _ZN17KWindowShadowTileD2Ev@Base 6.0.0
 _ZN20KWindowShadowPrivate12prepareTilesEv@Base 6.0.0
 _ZN20KWindowShadowPrivate6createEv@Base 6.0.0
 _ZN20KWindowShadowPrivate7destroyEv@Base 6.0.0
 _ZN20KWindowShadowPrivateD0Ev@Base 6.0.0
 _ZN20KWindowShadowPrivateD1Ev@Base 6.0.0
 _ZN20KWindowShadowPrivateD2Ev@Base 6.0.0
 _ZN20KWindowSystemPrivateD0Ev@Base 6.0.0
 _ZN20KWindowSystemPrivateD1Ev@Base 6.0.0
 _ZN20KWindowSystemPrivateD2Ev@Base 6.0.0
 _ZN21KWindowEffectsPrivateC1Ev@Base 6.0.0
 _ZN21KWindowEffectsPrivateC2Ev@Base 6.0.0
 _ZN21KWindowEffectsPrivateD0Ev@Base 6.0.0
 _ZN21KWindowEffectsPrivateD1Ev@Base 6.0.0
 _ZN21KWindowEffectsPrivateD2Ev@Base 6.0.0
 _ZN24KWindowShadowTilePrivate3getEPK17KWindowShadowTile@Base 6.0.0
 _ZN24KWindowShadowTilePrivateD0Ev@Base 6.0.0
 _ZN24KWindowShadowTilePrivateD1Ev@Base 6.0.0
 _ZN24KWindowShadowTilePrivateD2Ev@Base 6.0.0
 _ZN28KWindowSystemPluginInterface11qt_metacallEN11QMetaObject4CallEiPPv@Base 6.0.0
 _ZN28KWindowSystemPluginInterface11qt_metacastEPKc@Base 6.0.0
 _ZN28KWindowSystemPluginInterface13createEffectsEv@Base 6.0.0
 _ZN28KWindowSystemPluginInterface16staticMetaObjectE@Base 6.0.0
 _ZN28KWindowSystemPluginInterface18createWindowShadowEv@Base 6.0.0
 _ZN28KWindowSystemPluginInterface18createWindowSystemEv@Base 6.0.0
 _ZN28KWindowSystemPluginInterface22createWindowShadowTileEv@Base 6.0.0
 _ZN28KWindowSystemPluginInterfaceC1EP7QObject@Base 6.0.0
 _ZN28KWindowSystemPluginInterfaceC2EP7QObject@Base 6.0.0
 _ZN28KWindowSystemPluginInterfaceD0Ev@Base 6.0.0
 _ZN28KWindowSystemPluginInterfaceD1Ev@Base 6.0.0
 _ZN28KWindowSystemPluginInterfaceD2Ev@Base 6.0.0
 _ZN3NET13timestampDiffEmm@Base 6.0.0
 _ZN3NET15typeMatchesMaskENS_10WindowTypeE6QFlagsINS_14WindowTypeMaskEE@Base 6.0.0
 _ZN3NET16timestampCompareEmm@Base 6.0.0
 _ZNK10KX11Extras10metaObjectEv@Base 6.0.0
 _ZNK10KXMessages10metaObjectEv@Base 6.0.0
 _ZNK10NETWinInfo10activitiesEv@Base 6.0.0
 _ZNK10NETWinInfo10windowRoleEv@Base 6.0.0
 _ZNK10NETWinInfo10windowTypeE6QFlagsIN3NET14WindowTypeMaskEE@Base 6.0.0
 _ZNK10NETWinInfo11groupLeaderEv@Base 6.0.0
 _ZNK10NETWinInfo11visibleNameEv@Base 6.0.0
 _ZNK10NETWinInfo12frameExtentsEv@Base 6.0.0
 _ZNK10NETWinInfo12frameOverlapEv@Base 6.0.0
 _ZNK10NETWinInfo12handledIconsEv@Base 6.0.0
 _ZNK10NETWinInfo12iconGeometryEv@Base 6.0.0
 _ZNK10NETWinInfo12iconInternalER9NETRArrayI7NETIconEiii@Base 6.0.0
 _ZNK10NETWinInfo12mappingStateEv@Base 6.0.0
 _ZNK10NETWinInfo12opaqueRegionEv@Base 6.0.0
 _ZNK10NETWinInfo12transientForEv@Base 6.0.0
 _ZNK10NETWinInfo13clientMachineEv@Base 6.0.0
 _ZNK10NETWinInfo13extendedStrutEv@Base 6.0.0
 _ZNK10NETWinInfo13hasNETSupportEv@Base 6.0.0
 _ZNK10NETWinInfo13hasWindowTypeEv@Base 6.0.0
 _ZNK10NETWinInfo13xcbConnectionEv@Base 6.0.0
 _ZNK10NETWinInfo14allowedActionsEv@Base 6.0.0
 _ZNK10NETWinInfo15desktopFileNameEv@Base 6.0.0
 _ZNK10NETWinInfo15gtkFrameExtentsEv@Base 6.0.0
 _ZNK10NETWinInfo15icccmIconPixmapEv@Base 6.0.0
 _ZNK10NETWinInfo15visibleIconNameEv@Base 6.0.0
 _ZNK10NETWinInfo15windowClassNameEv@Base 6.0.0
 _ZNK10NETWinInfo16gtkApplicationIdEv@Base 6.0.0
 _ZNK10NETWinInfo16passedPropertiesEv@Base 6.0.0
 _ZNK10NETWinInfo16supportsProtocolEN3NET8ProtocolE@Base 6.0.0
 _ZNK10NETWinInfo16windowClassClassEv@Base 6.0.0
 _ZNK10NETWinInfo17appMenuObjectPathEv@Base 6.0.0
 _ZNK10NETWinInfo17passedProperties2Ev@Base 6.0.0
 _ZNK10NETWinInfo18appMenuServiceNameEv@Base 6.0.0
 _ZNK10NETWinInfo18fullscreenMonitorsEv@Base 6.0.0
 _ZNK10NETWinInfo19icccmIconPixmapMaskEv@Base 6.0.0
 _ZNK10NETWinInfo19initialMappingStateEv@Base 6.0.0
 _ZNK10NETWinInfo21isBlockingCompositingEv@Base 6.0.0
 _ZNK10NETWinInfo3pidEv@Base 6.0.0
 _ZNK10NETWinInfo4iconEii@Base 6.0.0
 _ZNK10NETWinInfo4nameEv@Base 6.0.0
 _ZNK10NETWinInfo5inputEv@Base 6.0.0
 _ZNK10NETWinInfo5stateEv@Base 6.0.0
 _ZNK10NETWinInfo5strutEv@Base 6.0.0
 _ZNK10NETWinInfo7desktopEb@Base 6.0.0
 _ZNK10NETWinInfo7opacityEv@Base 6.0.0
 _ZNK10NETWinInfo7urgencyEv@Base 6.0.0
 _ZNK10NETWinInfo8iconNameEv@Base 6.0.0
 _ZNK10NETWinInfo8opacityFEv@Base 6.0.0
 _ZNK10NETWinInfo8userTimeEv@Base 6.0.0
 _ZNK10NETWinInfo9iconSizesEv@Base 6.0.0
 _ZNK10NETWinInfo9protocolsEv@Base 6.0.0
 _ZNK10NETWinInfo9startupIdEv@Base 6.0.0
 _ZNK11KWindowInfo10activitiesEv@Base 6.0.0
 _ZNK11KWindowInfo10windowRoleEv@Base 6.0.0
 _ZNK11KWindowInfo10windowTypeE6QFlagsIN3NET14WindowTypeMaskEE@Base 6.0.0
 _ZNK11KWindowInfo11groupLeaderEv@Base 6.0.0
 _ZNK11KWindowInfo11isMinimizedEv@Base 6.0.0
 _ZNK11KWindowInfo11isOnDesktopEi@Base 6.0.0
 _ZNK11KWindowInfo11visibleNameEv@Base 6.0.0
 _ZNK11KWindowInfo12mappingStateEv@Base 6.0.0
 _ZNK11KWindowInfo12transientForEv@Base 6.0.0
 _ZNK11KWindowInfo13clientMachineEv@Base 6.0.0
 _ZNK11KWindowInfo13extendedStrutEv@Base 6.0.0
 _ZNK11KWindowInfo13frameGeometryEv@Base 6.0.0
 _ZNK11KWindowInfo13onAllDesktopsEv@Base 6.0.0
 _ZNK11KWindowInfo15actionSupportedEN3NET6ActionE@Base 6.0.0
 _ZNK11KWindowInfo15desktopFileNameEv@Base 6.0.0
 _ZNK11KWindowInfo15visibleIconNameEv@Base 6.0.0
 _ZNK11KWindowInfo15windowClassNameEv@Base 6.0.0
 _ZNK11KWindowInfo16gtkApplicationIdEv@Base 6.0.0
 _ZNK11KWindowInfo16windowClassClassEv@Base 6.0.0
 _ZNK11KWindowInfo18isOnCurrentDesktopEv@Base 6.0.0
 _ZNK11KWindowInfo20visibleNameWithStateEv@Base 6.0.0
 _ZNK11KWindowInfo24visibleIconNameWithStateEv@Base 6.0.0
 _ZNK11KWindowInfo25applicationMenuObjectPathEv@Base 6.0.0
 _ZNK11KWindowInfo26applicationMenuServiceNameEv@Base 6.0.0
 _ZNK11KWindowInfo3pidEv@Base 6.0.0
 _ZNK11KWindowInfo3winEv@Base 6.0.0
 _ZNK11KWindowInfo4nameEv@Base 6.0.0
 _ZNK11KWindowInfo5stateEv@Base 6.0.0
 _ZNK11KWindowInfo5validEb@Base 6.0.0
 _ZNK11KWindowInfo7desktopEv@Base 6.0.0
 _ZNK11KWindowInfo8geometryEv@Base 6.0.0
 _ZNK11KWindowInfo8hasStateE6QFlagsIN3NET5StateEE@Base 6.0.0
 _ZNK11KWindowInfo8iconNameEv@Base 6.0.0
 _ZNK11NETRootInfo10clientListEv@Base 6.0.0
 _ZNK11NETRootInfo10rootWindowEv@Base 6.0.0
 _ZNK11NETRootInfo11desktopNameEi@Base 6.0.0
 _ZNK11NETRootInfo11isSupportedEN3NET14WindowTypeMaskE@Base 6.0.0
 _ZNK11NETRootInfo11isSupportedEN3NET5StateE@Base 6.0.0
 _ZNK11NETRootInfo11isSupportedEN3NET6ActionE@Base 6.0.0
 _ZNK11NETRootInfo11isSupportedEN3NET8PropertyE@Base 6.0.0
 _ZNK11NETRootInfo11isSupportedEN3NET9Property2E@Base 6.0.0
 _ZNK11NETRootInfo12activeWindowEv@Base 6.0.0
 _ZNK11NETRootInfo12passedStatesEv@Base 6.0.0
 _ZNK11NETRootInfo12virtualRootsEv@Base 6.0.0
 _ZNK11NETRootInfo13passedActionsEv@Base 6.0.0
 _ZNK11NETRootInfo13supportWindowEv@Base 6.0.0
 _ZNK11NETRootInfo13xcbConnectionEv@Base 6.0.0
 _ZNK11NETRootInfo14currentDesktopEb@Base 6.0.0
 _ZNK11NETRootInfo14showingDesktopEv@Base 6.0.0
 _ZNK11NETRootInfo15clientListCountEv@Base 6.0.0
 _ZNK11NETRootInfo15desktopGeometryEv@Base 6.0.0
 _ZNK11NETRootInfo15desktopViewportEi@Base 6.0.0
 _ZNK11NETRootInfo15supportedStatesEv@Base 6.0.0
 _ZNK11NETRootInfo16numberOfDesktopsEb@Base 6.0.0
 _ZNK11NETRootInfo16passedPropertiesEv@Base 6.0.0
 _ZNK11NETRootInfo16supportedActionsEv@Base 6.0.0
 _ZNK11NETRootInfo17passedProperties2Ev@Base 6.0.0
 _ZNK11NETRootInfo17passedWindowTypesEv@Base 6.0.0
 _ZNK11NETRootInfo17virtualRootsCountEv@Base 6.0.0
 _ZNK11NETRootInfo18clientListStackingEv@Base 6.0.0
 _ZNK11NETRootInfo19desktopLayoutCornerEv@Base 6.0.0
 _ZNK11NETRootInfo19supportedPropertiesEv@Base 6.0.0
 _ZNK11NETRootInfo20supportedProperties2Ev@Base 6.0.0
 _ZNK11NETRootInfo20supportedWindowTypesEv@Base 6.0.0
 _ZNK11NETRootInfo23clientListStackingCountEv@Base 6.0.0
 _ZNK11NETRootInfo24desktopLayoutColumnsRowsEv@Base 6.0.0
 _ZNK11NETRootInfo24desktopLayoutOrientationEv@Base 6.0.0
 _ZNK11NETRootInfo6wmNameEv@Base 6.0.0
 _ZNK11NETRootInfo8workAreaEi@Base 6.0.0
 _ZNK12KStartupInfo10metaObjectEv@Base 6.0.0
 _ZNK13KWindowShadow10bottomTileEv@Base 6.0.0
 _ZNK13KWindowShadow10metaObjectEv@Base 6.0.0
 _ZNK13KWindowShadow11topLeftTileEv@Base 6.0.0
 _ZNK13KWindowShadow12topRightTileEv@Base 6.0.0
 _ZNK13KWindowShadow14bottomLeftTileEv@Base 6.0.0
 _ZNK13KWindowShadow15bottomRightTileEv@Base 6.0.0
 _ZNK13KWindowShadow6windowEv@Base 6.0.0
 _ZNK13KWindowShadow7paddingEv@Base 6.0.0
 _ZNK13KWindowShadow7topTileEv@Base 6.0.0
 _ZNK13KWindowShadow8leftTileEv@Base 6.0.0
 _ZNK13KWindowShadow9isCreatedEv@Base 6.0.0
 _ZNK13KWindowShadow9rightTileEv@Base 6.0.0
 _ZNK13KWindowSystem10metaObjectEv@Base 6.0.0
 _ZNK14KStartupInfoId15setupStartupEnvEv@Base 6.0.0
 _ZNK14KStartupInfoId2idEv@Base 6.0.0
 _ZNK14KStartupInfoId6isNullEv@Base 6.0.0
 _ZNK14KStartupInfoId9timestampEv@Base 6.0.0
 _ZNK14KStartupInfoIdeqERKS_@Base 6.0.0
 _ZNK14KStartupInfoIdltERKS_@Base 6.0.0
 _ZNK14KStartupInfoIdneERKS_@Base 6.0.0
 (arch=linux-any)_ZNK14KWaylandExtras10metaObjectEv@Base 6.0.0
 _ZNK15KSelectionOwner10metaObjectEv@Base 6.0.0
 _ZNK15KSelectionOwner11ownerWindowEv@Base 6.0.0
 _ZNK16KStartupInfoData11descriptionEv@Base 6.0.0
 _ZNK16KStartupInfoData11findWMClassEv@Base 6.0.0
 _ZNK16KStartupInfoData13applicationIdEv@Base 6.0.0
 _ZNK16KStartupInfoData15findDescriptionEv@Base 6.0.0
 _ZNK16KStartupInfoData3binEv@Base 6.0.0
 _ZNK16KStartupInfoData4iconEv@Base 6.0.0
 _ZNK16KStartupInfoData4nameEv@Base 6.0.0
 _ZNK16KStartupInfoData4pidsEv@Base 6.0.0
 _ZNK16KStartupInfoData6is_pidEi@Base 6.0.0
 _ZNK16KStartupInfoData6screenEv@Base 6.0.0
 _ZNK16KStartupInfoData6silentEv@Base 6.0.0
 _ZNK16KStartupInfoData7WMClassEv@Base 6.0.0
 _ZNK16KStartupInfoData7desktopEv@Base 6.0.0
 _ZNK16KStartupInfoData8findIconEv@Base 6.0.0
 _ZNK16KStartupInfoData8findNameEv@Base 6.0.0
 _ZNK16KStartupInfoData8hostnameEv@Base 6.0.0
 _ZNK16KStartupInfoData8xineramaEv@Base 6.0.0
 _ZNK17KSelectionWatcher10metaObjectEv@Base 6.0.0
 _ZNK17KWindowShadowTile5imageEv@Base 6.0.0
 _ZNK17KWindowShadowTile9isCreatedEv@Base 6.0.0
 _ZNK28KWindowSystemPluginInterface10metaObjectEv@Base 6.0.0
 (optional=templinst|arch=amd64)_ZNSt8_Rb_treeIySt4pairIKy10QByteArrayESt10_Select1stIS3_ESt4lessIyESaIS3_EE16_M_insert_uniqueIS3_EES0_ISt17_Rb_tree_iteratorIS3_EbEOT_@Base 6.0.0
 _ZTI10KX11Extras@Base 6.0.0
 _ZTI10KXMessages@Base 6.0.0
 _ZTI10NETWinInfo@Base 6.0.0
 _ZTI11NETRootInfo@Base 6.0.0
 _ZTI12KStartupInfo@Base 6.0.0
 _ZTI13KWindowShadow@Base 6.0.0
 _ZTI13KWindowSystem@Base 6.0.0
 (arch=linux-any)_ZTI14KWaylandExtras@Base 6.0.0
 _ZTI15KSelectionOwner@Base 6.0.0
 _ZTI17KSelectionWatcher@Base 6.0.0
 _ZTI20KWindowShadowPrivate@Base 6.0.0
 _ZTI20KWindowSystemPrivate@Base 6.0.0
 _ZTI21KWindowEffectsPrivate@Base 6.0.0
 _ZTI22KWindowSystemPrivateV2@Base 6.0.0
 _ZTI24KWindowShadowTilePrivate@Base 6.0.0
 _ZTI28KWindowSystemPluginInterface@Base 6.0.0
 _ZTI3NET@Base 6.0.0
 _ZTS10KX11Extras@Base 6.0.0
 _ZTS10KXMessages@Base 6.0.0
 _ZTS10NETWinInfo@Base 6.0.0
 _ZTS11NETRootInfo@Base 6.0.0
 _ZTS12KStartupInfo@Base 6.0.0
 _ZTS13KWindowShadow@Base 6.0.0
 _ZTS13KWindowSystem@Base 6.0.0
 (arch=linux-any)_ZTS14KWaylandExtras@Base 6.0.0
 _ZTS15KSelectionOwner@Base 6.0.0
 _ZTS17KSelectionWatcher@Base 6.0.0
 _ZTS20KWindowShadowPrivate@Base 6.0.0
 _ZTS20KWindowSystemPrivate@Base 6.0.0
 _ZTS21KWindowEffectsPrivate@Base 6.0.0
 _ZTS22KWindowSystemPrivateV2@Base 6.0.0
 _ZTS24KWindowShadowTilePrivate@Base 6.0.0
 _ZTS28KWindowSystemPluginInterface@Base 6.0.0
 _ZTS3NET@Base 6.0.0
 _ZTV10KX11Extras@Base 6.0.0
 _ZTV10KXMessages@Base 6.0.0
 _ZTV10NETWinInfo@Base 6.0.0
 _ZTV11NETRootInfo@Base 6.0.0
 _ZTV12KStartupInfo@Base 6.0.0
 _ZTV13KWindowShadow@Base 6.0.0
 _ZTV13KWindowSystem@Base 6.0.0
 (arch=linux-any)_ZTV14KWaylandExtras@Base 6.0.0
 _ZTV15KSelectionOwner@Base 6.0.0
 _ZTV17KSelectionWatcher@Base 6.0.0
 _ZTV20KWindowShadowPrivate@Base 6.0.0
 _ZTV20KWindowSystemPrivate@Base 6.0.0
 _ZTV21KWindowEffectsPrivate@Base 6.0.0
 _ZTV24KWindowShadowTilePrivate@Base 6.0.0
 _ZTV28KWindowSystemPluginInterface@Base 6.0.0
